; Function Attrs: nounwind uwtable
define ptr @l___private_Lean_PrettyPrinter_Formatter_0__Lean_PrettyPrinter_Formatter_getExprPos_x3f(ptr noundef %0) local_unnamed_addr #0 {
  %2 = ptrtoint ptr %0 to i64
  %3 = and i64 %2, 1
  %.not.i = icmp eq i64 %3, 0
  br i1 %.not.i, label %7, label %4

4:                                                ; preds = %1
  %5 = lshr i64 %2, 1
  %6 = trunc i64 %5 to i32
  br label %lean_obj_tag.exit

7:                                                ; preds = %1
  %8 = getelementptr i8, ptr %0, i64 4
  %.val.i = load i32, ptr %8, align 4
  %9 = lshr i32 %.val.i, 24
  br label %lean_obj_tag.exit

lean_obj_tag.exit:                                ; preds = %4, %7
  %.0.i = phi i32 [ %6, %4 ], [ %9, %7 ]
  %10 = icmp eq i32 %.0.i, 0
  br i1 %10, label %l___private_Lean_PrettyPrinter_Formatter_0__Lean_PrettyPrinter_Formatter_SourceInfo_getExprPos_x3f.exit, label %11

11:                                               ; preds = %lean_obj_tag.exit
  %12 = getelementptr inbounds nuw i8, ptr %0, i64 8
  %13 = load ptr, ptr %12, align 8, !tbaa !4
  %14 = ptrtoint ptr %13 to i64
  %15 = and i64 %14, 1
  %.not.i.i = icmp eq i64 %15, 0
  br i1 %.not.i.i, label %19, label %16

16:                                               ; preds = %11
  %17 = lshr i64 %14, 1
  %18 = trunc i64 %17 to i32
  br label %lean_obj_tag.exit.i

19:                                               ; preds = %11
  %20 = getelementptr i8, ptr %13, i64 4
  %.val.i.i = load i32, ptr %20, align 4
  %21 = lshr i32 %.val.i.i, 24
  br label %lean_obj_tag.exit.i

lean_obj_tag.exit.i:                              ; preds = %19, %16
  %.0.i.i = phi i32 [ %18, %16 ], [ %21, %19 ]
  %22 = icmp eq i32 %.0.i.i, 1
  br i1 %22, label %23, label %l___private_Lean_PrettyPrinter_Formatter_0__Lean_PrettyPrinter_Formatter_SourceInfo_getExprPos_x3f.exit

23:                                               ; preds = %lean_obj_tag.exit.i
  %24 = getelementptr inbounds nuw i8, ptr %13, i64 8
  %25 = load ptr, ptr %24, align 8, !tbaa !4
  %26 = ptrtoint ptr %25 to i64
  %27 = and i64 %26, 1
  %.not.i7 = icmp eq i64 %27, 0
  br i1 %.not.i7, label %28, label %lean_inc.exit.i

28:                                               ; preds = %23
  %.val.i8.i = load i32, ptr %25, align 4, !tbaa !8
  %29 = icmp sgt i32 %.val.i8.i, 0
  br i1 %29, label %30, label %32, !prof !11

30:                                               ; preds = %28
  %31 = add nuw i32 %.val.i8.i, 1
  store i32 %31, ptr %25, align 4, !tbaa !8
  br label %lean_inc.exit.i

32:                                               ; preds = %28
  %.not.i9.i = icmp eq i32 %.val.i8.i, 0
  br i1 %.not.i9.i, label %lean_inc.exit.i, label %33

33:                                               ; preds = %32
  tail call void @lean_inc_ref_cold(ptr noundef nonnull %25) #6
  br label %lean_inc.exit.i

lean_inc.exit.i:                                  ; preds = %33, %32, %30, %23
  tail call void @lean_inc_heartbeat() #6
  %34 = tail call noalias ptr @mi_malloc_small(i64 noundef 16) #6
  %35 = icmp eq ptr %34, null
  br i1 %35, label %36, label %lean_alloc_ctor.exit.i

36:                                               ; preds = %lean_inc.exit.i
  tail call void @lean_internal_panic_out_of_memory() #7
  unreachable

lean_alloc_ctor.exit.i:                           ; preds = %lean_inc.exit.i
  %37 = getelementptr inbounds nuw i8, ptr %34, i64 4
  store i32 1, ptr %34, align 4, !tbaa !8
  store i32 16842768, ptr %37, align 4
  %38 = getelementptr inbounds nuw i8, ptr %34, i64 8
  store ptr %25, ptr %38, align 8, !tbaa !4
  br label %l___private_Lean_PrettyPrinter_Formatter_0__Lean_PrettyPrinter_Formatter_SourceInfo_getExprPos_x3f.exit

l___private_Lean_PrettyPrinter_Formatter_0__Lean_PrettyPrinter_Formatter_SourceInfo_getExprPos_x3f.exit: ; preds = %lean_alloc_ctor.exit.i, %lean_obj_tag.exit.i, %lean_obj_tag.exit
  %.0 = phi ptr [ inttoptr (i64 1 to ptr), %lean_obj_tag.exit ], [ %34, %lean_alloc_ctor.exit.i ], [ inttoptr (i64 1 to ptr), %lean_obj_tag.exit.i ]
  ret ptr %.0
}